target datalayout = "e-m:e-p270:32:32-p271:32:32-p272:64:64-i64:64-i128:128-f80:128-n8:16:32:64-S128"
target triple = "x86_64-pc-linux-gnu"

%struct.git_hash_algo = type { ptr, i32, i64, i64, i64, ptr, ptr, ptr, ptr, ptr, ptr, ptr, ptr, ptr }
%struct.strbuf = type { i64, i64, ptr }
%struct.object_id = type { [32 x i8], i32 }
%struct.repository = type { ptr, ptr, ptr, ptr, ptr, %struct.strmap, %struct.strmap, %struct.repo_path_cache, ptr, ptr, ptr, ptr, %struct.repo_settings, ptr, ptr, ptr, ptr, ptr, ptr, i32, i32, i32, ptr, ptr, i32, i32, i8 }
%struct.strmap = type { %struct.hashmap, ptr, i8 }
%struct.hashmap = type { ptr, ptr, ptr, i32, i32, i32, i32, i8 }
%struct.repo_path_cache = type { ptr, ptr, ptr, ptr, ptr, ptr, ptr }
%struct.repo_settings = type { i32, i32, i32, i32, i32, i32, i32, i32, i32, i32, i32, i32, ptr, i32, i32, i32, i32, i32, i32, i32, i64, i64, i64 }

@hash_algos = external constant [3 x %struct.git_hash_algo], align 16
@the_repository = external global ptr, align 8
@__const.convert_tag_object.payload = private unnamed_addr constant %struct.strbuf { i64 0, i64 0, ptr @strbuf_slopbuf }, align 8
@__const.convert_tag_object.oursig = private unnamed_addr constant %struct.strbuf { i64 0, i64 0, ptr @strbuf_slopbuf }, align 8
@__const.convert_tag_object.othersig = private unnamed_addr constant %struct.strbuf { i64 0, i64 0, ptr @strbuf_slopbuf }, align 8
@.str.23 = private unnamed_addr constant [8 x i8] c"object \00", align 1
@.str.24 = private unnamed_addr constant [17 x i8] c"bogus tag object\00", align 1
@.str.25 = private unnamed_addr constant [18 x i8] c"bad tag object ID\00", align 1
@.str.26 = private unnamed_addr constant [36 x i8] c"unable to map tree %s in tag object\00", align 1
@.str.27 = private unnamed_addr constant [11 x i8] c"object %s\0A\00", align 1

; Function Attrs: inlinehint nounwind uwtable
define internal void @oidcpy(ptr noundef %0, ptr noundef %1) #2 {
  %3 = alloca ptr, align 8
  %4 = alloca ptr, align 8
  store ptr %0, ptr %3, align 8, !tbaa !9
  store ptr %1, ptr %4, align 8, !tbaa !9
  %5 = load ptr, ptr %3, align 8, !tbaa !9
  %6 = getelementptr inbounds nuw %struct.object_id, ptr %5, i32 0, i32 0
  %7 = getelementptr inbounds [32 x i8], ptr %6, i64 0, i64 0
  %8 = load ptr, ptr %4, align 8, !tbaa !9
  %9 = getelementptr inbounds nuw %struct.object_id, ptr %8, i32 0, i32 0
  %10 = getelementptr inbounds [32 x i8], ptr %9, i64 0, i64 0
  call void @llvm.memcpy.p0.p0.i64(ptr align 4 %7, ptr align 4 %10, i64 32, i1 false)
  %11 = load ptr, ptr %4, align 8, !tbaa !9
  %12 = getelementptr inbounds nuw %struct.object_id, ptr %11, i32 0, i32 1
  %13 = load i32, ptr %12, align 4, !tbaa !13
  %14 = load ptr, ptr %3, align 8, !tbaa !9
  %15 = getelementptr inbounds nuw %struct.object_id, ptr %14, i32 0, i32 1
  store i32 %13, ptr %15, align 4, !tbaa !13
  ret void
}

; Function Attrs: nounwind uwtable
define dso_local i32 @repo_oid_to_algop(ptr noundef %0, ptr noundef %1, ptr noundef %2, ptr noundef %3) #0 {
  %5 = alloca i32, align 4
  %6 = alloca ptr, align 8
  %7 = alloca ptr, align 8
  %8 = alloca ptr, align 8
  %9 = alloca ptr, align 8
  %10 = alloca ptr, align 8
  %11 = alloca i32, align 4
  store ptr %0, ptr %6, align 8, !tbaa !4
  store ptr %1, ptr %7, align 8, !tbaa !9
  store ptr %2, ptr %8, align 8, !tbaa !11
  store ptr %3, ptr %9, align 8, !tbaa !9
  call void @llvm.lifetime.start.p0(i64 8, ptr %10) #9
  %12 = load ptr, ptr %7, align 8, !tbaa !9
  %13 = getelementptr inbounds nuw %struct.object_id, ptr %12, i32 0, i32 1
  %14 = load i32, ptr %13, align 4, !tbaa !13
  %15 = icmp ne i32 %14, 0
  br i1 %15, label %16, label %22

16:                                               ; preds = %4
  %17 = load ptr, ptr %7, align 8, !tbaa !9
  %18 = getelementptr inbounds nuw %struct.object_id, ptr %17, i32 0, i32 1
  %19 = load i32, ptr %18, align 4, !tbaa !13
  %20 = sext i32 %19 to i64
  %21 = getelementptr inbounds [3 x %struct.git_hash_algo], ptr @hash_algos, i64 0, i64 %20
  br label %26

22:                                               ; preds = %4
  %23 = load ptr, ptr %6, align 8, !tbaa !4
  %24 = getelementptr inbounds nuw %struct.repository, ptr %23, i32 0, i32 17
  %25 = load ptr, ptr %24, align 8, !tbaa !16
  br label %26

26:                                               ; preds = %22, %16
  %27 = phi ptr [ %21, %16 ], [ %25, %22 ]
  store ptr %27, ptr %10, align 8, !tbaa !11
  %28 = load ptr, ptr %10, align 8, !tbaa !11
  %29 = load ptr, ptr %8, align 8, !tbaa !11
  %30 = icmp eq ptr %28, %29
  br i1 %30, label %31, label %39

31:                                               ; preds = %26
  %32 = load ptr, ptr %7, align 8, !tbaa !9
  %33 = load ptr, ptr %9, align 8, !tbaa !9
  %34 = icmp ne ptr %32, %33
  br i1 %34, label %35, label %38

35:                                               ; preds = %31
  %36 = load ptr, ptr %9, align 8, !tbaa !9
  %37 = load ptr, ptr %7, align 8, !tbaa !9
  call void @oidcpy(ptr noundef %36, ptr noundef %37)
  br label %38

38:                                               ; preds = %35, %31
  store i32 0, ptr %5, align 4
  store i32 1, ptr %11, align 4
  br label %58

39:                                               ; preds = %26
  %40 = load ptr, ptr %6, align 8, !tbaa !4
  %41 = load ptr, ptr %7, align 8, !tbaa !9
  %42 = load ptr, ptr %8, align 8, !tbaa !11
  %43 = load ptr, ptr %9, align 8, !tbaa !9
  %44 = call i32 @repo_loose_object_map_oid(ptr noundef %40, ptr noundef %41, ptr noundef %42, ptr noundef %43)
  %45 = icmp ne i32 %44, 0
  br i1 %45, label %46, label %57

46:                                               ; preds = %39
  %47 = load ptr, ptr %6, align 8, !tbaa !4
  %48 = call i32 @repo_read_loose_object_map(ptr noundef %47)
  %49 = load ptr, ptr %6, align 8, !tbaa !4
  %50 = load ptr, ptr %7, align 8, !tbaa !9
  %51 = load ptr, ptr %8, align 8, !tbaa !11
  %52 = load ptr, ptr %9, align 8, !tbaa !9
  %53 = call i32 @repo_loose_object_map_oid(ptr noundef %49, ptr noundef %50, ptr noundef %51, ptr noundef %52)
  %54 = icmp ne i32 %53, 0
  br i1 %54, label %55, label %56

55:                                               ; preds = %46
  store i32 -1, ptr %5, align 4
  store i32 1, ptr %11, align 4
  br label %58

56:                                               ; preds = %46
  br label %57

57:                                               ; preds = %56, %39
  store i32 0, ptr %5, align 4
  store i32 1, ptr %11, align 4
  br label %58

58:                                               ; preds = %57, %55, %38
  call void @llvm.lifetime.end.p0(i64 8, ptr %10) #9
  %59 = load i32, ptr %5, align 4
  ret i32 %59
}

; Function Attrs: inlinehint nounwind uwtable
define internal i32 @const_error() #2 {
  ret i32 -1
}

; Function Attrs: nounwind uwtable
define internal i32 @convert_tag_object(ptr noundef %0, ptr noundef %1, ptr noundef %2, ptr noundef %3, i64 noundef %4) #0 {
  %6 = alloca i32, align 4
  %7 = alloca ptr, align 8
  %8 = alloca ptr, align 8
  %9 = alloca ptr, align 8
  %10 = alloca ptr, align 8
  %11 = alloca i64, align 8
  %12 = alloca %struct.strbuf, align 8
  %13 = alloca %struct.strbuf, align 8
  %14 = alloca %struct.strbuf, align 8
  %15 = alloca i32, align 4
  %16 = alloca i64, align 8
  %17 = alloca %struct.object_id, align 4
  %18 = alloca %struct.object_id, align 4
  %19 = alloca ptr, align 8
  %20 = alloca i32, align 4
  store ptr %0, ptr %7, align 8, !tbaa !35
  store ptr %1, ptr %8, align 8, !tbaa !11
  store ptr %2, ptr %9, align 8, !tbaa !11
  store ptr %3, ptr %10, align 8, !tbaa !42
  store i64 %4, ptr %11, align 8, !tbaa !38
  call void @llvm.lifetime.start.p0(i64 24, ptr %12) #9
  call void @llvm.memcpy.p0.p0.i64(ptr align 8 %12, ptr align 8 @__const.convert_tag_object.payload, i64 24, i1 false)
  call void @llvm.lifetime.start.p0(i64 24, ptr %13) #9
  call void @llvm.memcpy.p0.p0.i64(ptr align 8 %13, ptr align 8 @__const.convert_tag_object.oursig, i64 24, i1 false)
  call void @llvm.lifetime.start.p0(i64 24, ptr %14) #9
  call void @llvm.memcpy.p0.p0.i64(ptr align 8 %14, ptr align 8 @__const.convert_tag_object.othersig, i64 24, i1 false)
  call void @llvm.lifetime.start.p0(i64 4, ptr %15) #9
  %21 = load ptr, ptr %8, align 8, !tbaa !11
  %22 = getelementptr inbounds nuw %struct.git_hash_algo, ptr %21, i32 0, i32 3
  %23 = load i64, ptr %22, align 8, !tbaa !43
  %24 = add i64 %23, 7
  %25 = trunc i64 %24 to i32
  store i32 %25, ptr %15, align 4, !tbaa !39
  call void @llvm.lifetime.start.p0(i64 8, ptr %16) #9
  call void @llvm.lifetime.start.p0(i64 36, ptr %17) #9
  call void @llvm.lifetime.start.p0(i64 36, ptr %18) #9
  call void @llvm.lifetime.start.p0(i64 8, ptr %19) #9
  %26 = load i32, ptr %15, align 4, !tbaa !39
  %27 = sext i32 %26 to i64
  %28 = load i64, ptr %11, align 8, !tbaa !38
  %29 = icmp uge i64 %27, %28
  br i1 %29, label %42, label %30

30:                                               ; preds = %5
  %31 = load ptr, ptr %10, align 8, !tbaa !42
  %32 = call i32 @memcmp(ptr noundef %31, ptr noundef @.str.23, i64 noundef 7) #11
  %33 = icmp ne i32 %32, 0
  br i1 %33, label %42, label %34

34:                                               ; preds = %30
  %35 = load ptr, ptr %10, align 8, !tbaa !42
  %36 = load i32, ptr %15, align 4, !tbaa !39
  %37 = sext i32 %36 to i64
  %38 = getelementptr inbounds i8, ptr %35, i64 %37
  %39 = load i8, ptr %38, align 1, !tbaa !44
  %40 = sext i8 %39 to i32
  %41 = icmp ne i32 %40, 10
  br i1 %41, label %42, label %45

42:                                               ; preds = %34, %30, %5
  %43 = call i32 (ptr, ...) @error(ptr noundef @.str.24)
  %44 = call i32 @const_error()
  store i32 %44, ptr %6, align 4
  store i32 1, ptr %20, align 4
  br label %113

45:                                               ; preds = %34
  %46 = load ptr, ptr %10, align 8, !tbaa !42
  %47 = getelementptr inbounds i8, ptr %46, i64 7
  %48 = load ptr, ptr %8, align 8, !tbaa !11
  %49 = call i32 @parse_oid_hex_algop(ptr noundef %47, ptr noundef %17, ptr noundef %19, ptr noundef %48)
  %50 = icmp slt i32 %49, 0
  br i1 %50, label %51, label %54

51:                                               ; preds = %45
  %52 = call i32 (ptr, ...) @error(ptr noundef @.str.25)
  %53 = call i32 @const_error()
  store i32 %53, ptr %6, align 4
  store i32 1, ptr %20, align 4
  br label %113

54:                                               ; preds = %45
  %55 = load ptr, ptr @the_repository, align 8, !tbaa !4
  %56 = load ptr, ptr %9, align 8, !tbaa !11
  %57 = call i32 @repo_oid_to_algop(ptr noundef %55, ptr noundef %17, ptr noundef %56, ptr noundef %18)
  %58 = icmp ne i32 %57, 0
  br i1 %58, label %59, label %63

59:                                               ; preds = %54
  %60 = call ptr @oid_to_hex(ptr noundef %17)
  %61 = call i32 (ptr, ...) @error(ptr noundef @.str.26, ptr noundef %60)
  %62 = call i32 @const_error()
  store i32 %62, ptr %6, align 4
  store i32 1, ptr %20, align 4
  br label %113

63:                                               ; preds = %54
  %64 = load ptr, ptr %19, align 8, !tbaa !42
  %65 = getelementptr inbounds i8, ptr %64, i64 1
  %66 = load ptr, ptr %10, align 8, !tbaa !42
  %67 = ptrtoint ptr %65 to i64
  %68 = ptrtoint ptr %66 to i64
  %69 = sub i64 %67, %68
  %70 = load i64, ptr %11, align 8, !tbaa !38
  %71 = sub i64 %70, %69
  store i64 %71, ptr %11, align 8, !tbaa !38
  %72 = load ptr, ptr %19, align 8, !tbaa !42
  %73 = getelementptr inbounds i8, ptr %72, i64 1
  store ptr %73, ptr %10, align 8, !tbaa !42
  %74 = load ptr, ptr %10, align 8, !tbaa !42
  %75 = load i64, ptr %11, align 8, !tbaa !38
  %76 = call i64 @parse_signed_buffer(ptr noundef %74, i64 noundef %75)
  store i64 %76, ptr %16, align 8, !tbaa !38
  %77 = load i64, ptr %16, align 8, !tbaa !38
  %78 = load i64, ptr %11, align 8, !tbaa !38
  %79 = icmp ne i64 %77, %78
  br i1 %79, label %80, label %87

80:                                               ; preds = %63
  %81 = load ptr, ptr %10, align 8, !tbaa !42
  %82 = load i64, ptr %16, align 8, !tbaa !38
  %83 = getelementptr inbounds nuw i8, ptr %81, i64 %82
  %84 = load i64, ptr %11, align 8, !tbaa !38
  %85 = load i64, ptr %16, align 8, !tbaa !38
  %86 = sub i64 %84, %85
  call void @strbuf_add(ptr noundef %13, ptr noundef %83, i64 noundef %86)
  br label %87

87:                                               ; preds = %80, %63
  %88 = load ptr, ptr %10, align 8, !tbaa !42
  %89 = load i64, ptr %16, align 8, !tbaa !38
  %90 = load ptr, ptr %9, align 8, !tbaa !11
  %91 = call i32 @parse_buffer_signed_by_header(ptr noundef %88, i64 noundef %89, ptr noundef %12, ptr noundef %14, ptr noundef %90)
  %92 = load ptr, ptr %7, align 8, !tbaa !35
  %93 = load ptr, ptr %9, align 8, !tbaa !11
  %94 = getelementptr inbounds nuw %struct.git_hash_algo, ptr %93, i32 0, i32 3
  %95 = load i64, ptr %94, align 8, !tbaa !43
  %96 = add i64 7, %95
  %97 = add i64 %96, 1
  %98 = load i64, ptr %11, align 8, !tbaa !38
  %99 = add i64 %97, %98
  %100 = add i64 %99, 7
  call void @strbuf_grow(ptr noundef %92, i64 noundef %100)
  %101 = load ptr, ptr %7, align 8, !tbaa !35
  %102 = call ptr @oid_to_hex(ptr noundef %18)
  call void (ptr, ptr, ...) @strbuf_addf(ptr noundef %101, ptr noundef @.str.27, ptr noundef %102)
  %103 = load ptr, ptr %7, align 8, !tbaa !35
  call void @strbuf_addbuf(ptr noundef %103, ptr noundef %12)
  %104 = getelementptr inbounds nuw %struct.strbuf, ptr %13, i32 0, i32 1
  %105 = load i64, ptr %104, align 8, !tbaa !49
  %106 = icmp ne i64 %105, 0
  br i1 %106, label %107, label %111

107:                                              ; preds = %87
  %108 = load ptr, ptr %7, align 8, !tbaa !35
  %109 = load ptr, ptr %8, align 8, !tbaa !11
  %110 = call i32 @add_header_signature(ptr noundef %108, ptr noundef %13, ptr noundef %109)
  br label %111

111:                                              ; preds = %107, %87
  %112 = load ptr, ptr %7, align 8, !tbaa !35
  call void @strbuf_addbuf(ptr noundef %112, ptr noundef %14)
  call void @strbuf_release(ptr noundef %12)
  call void @strbuf_release(ptr noundef %14)
  call void @strbuf_release(ptr noundef %13)
  store i32 0, ptr %6, align 4
  store i32 1, ptr %20, align 4
  br label %113

113:                                              ; preds = %111, %59, %51, %42
  call void @llvm.lifetime.end.p0(i64 8, ptr %19) #9
  call void @llvm.lifetime.end.p0(i64 36, ptr %18) #9
  call void @llvm.lifetime.end.p0(i64 36, ptr %17) #9
  call void @llvm.lifetime.end.p0(i64 8, ptr %16) #9
  call void @llvm.lifetime.end.p0(i64 4, ptr %15) #9
  call void @llvm.lifetime.end.p0(i64 24, ptr %14) #9
  call void @llvm.lifetime.end.p0(i64 24, ptr %13) #9
  call void @llvm.lifetime.end.p0(i64 24, ptr %12) #9
  %114 = load i32, ptr %6, align 4
  ret i32 %114
}