; Function Attrs: nounwind uwtable
define internal fastcc range(i32 -1, 1) i32 @convert_tag_object(ptr noundef %0, ptr noundef %1, ptr noundef %2, ptr noundef %3, i64 noundef %4) unnamed_addr #0 {
  %6 = alloca %struct.strbuf, align 8
  %7 = alloca %struct.strbuf, align 8
  %8 = alloca %struct.strbuf, align 8
  %9 = alloca %struct.object_id, align 4
  %10 = alloca %struct.object_id, align 4
  %11 = alloca ptr, align 8
  call void @llvm.lifetime.start.p0(i64 24, ptr nonnull %6) #10
  call void @llvm.memcpy.p0.p0.i64(ptr noundef nonnull align 8 dereferenceable(24) %6, ptr noundef nonnull align 8 dereferenceable(24) @__const.convert_tag_object.othersig, i64 24, i1 false)
  call void @llvm.lifetime.start.p0(i64 24, ptr nonnull %7) #10
  call void @llvm.memcpy.p0.p0.i64(ptr noundef nonnull align 8 dereferenceable(24) %7, ptr noundef nonnull align 8 dereferenceable(24) @__const.convert_tag_object.othersig, i64 24, i1 false)
  call void @llvm.lifetime.start.p0(i64 24, ptr nonnull %8) #10
  call void @llvm.memcpy.p0.p0.i64(ptr noundef nonnull align 8 dereferenceable(24) %8, ptr noundef nonnull align 8 dereferenceable(24) @__const.convert_tag_object.othersig, i64 24, i1 false)
  %12 = getelementptr inbounds nuw i8, ptr %1, i64 24
  %13 = load i64, ptr %12, align 8, !tbaa !30
  call void @llvm.lifetime.start.p0(i64 36, ptr nonnull %9) #10
  call void @llvm.lifetime.start.p0(i64 36, ptr nonnull %10) #10
  call void @llvm.lifetime.start.p0(i64 8, ptr nonnull %11) #10
  %14 = shl i64 %13, 32
  %sext = add i64 %14, 30064771072
  %15 = ashr exact i64 %sext, 32
  %.not = icmp ult i64 %15, %4
  br i1 %.not, label %16, label %20

16:                                               ; preds = %5
  %bcmp = tail call i32 @bcmp(ptr noundef nonnull dereferenceable(7) %3, ptr noundef nonnull dereferenceable(7) @.str.23, i64 7)
  %.not34 = icmp eq i32 %bcmp, 0
  br i1 %.not34, label %17, label %20

17:                                               ; preds = %16
  %18 = getelementptr inbounds i8, ptr %3, i64 %15
  %19 = load i8, ptr %18, align 1, !tbaa !33
  %.not35 = icmp eq i8 %19, 10
  br i1 %.not35, label %22, label %20

20:                                               ; preds = %17, %16, %5
  %21 = tail call i32 (ptr, ...) @error(ptr noundef nonnull @.str.24) #10
  br label %72

22:                                               ; preds = %17
  %23 = getelementptr inbounds nuw i8, ptr %3, i64 7
  %24 = call i32 @parse_oid_hex_algop(ptr noundef nonnull %23, ptr noundef nonnull %9, ptr noundef nonnull %11, ptr noundef nonnull %1) #10
  %25 = icmp slt i32 %24, 0
  br i1 %25, label %26, label %28

26:                                               ; preds = %22
  %27 = call i32 (ptr, ...) @error(ptr noundef nonnull @.str.25) #10
  br label %72

28:                                               ; preds = %22
  %29 = load ptr, ptr @the_repository, align 8, !tbaa !35
  %30 = getelementptr inbounds nuw i8, ptr %9, i64 32
  %31 = load i32, ptr %30, align 4, !tbaa !4
  %.not.i = icmp eq i32 %31, 0
  br i1 %.not.i, label %35, label %32

32:                                               ; preds = %28
  %33 = sext i32 %31 to i64
  %34 = getelementptr inbounds [3 x %struct.git_hash_algo], ptr @hash_algos, i64 0, i64 %33
  br label %38

35:                                               ; preds = %28
  %36 = getelementptr inbounds nuw i8, ptr %29, i64 400
  %37 = load ptr, ptr %36, align 8, !tbaa !9
  br label %38

38:                                               ; preds = %35, %32
  %39 = phi ptr [ %34, %32 ], [ %37, %35 ]
  %40 = icmp eq ptr %39, %2
  br i1 %40, label %41, label %43

41:                                               ; preds = %38
  call void @llvm.memcpy.p0.p0.i64(ptr noundef nonnull align 4 dereferenceable(32) %10, ptr noundef nonnull readonly align 4 dereferenceable(32) %9, i64 32, i1 false)
  %42 = getelementptr inbounds nuw i8, ptr %10, i64 32
  store i32 %31, ptr %42, align 4, !tbaa !4
  br label %50

43:                                               ; preds = %38
  %44 = call i32 @repo_loose_object_map_oid(ptr noundef %29, ptr noundef nonnull %9, ptr noundef %2, ptr noundef nonnull %10) #10
  %.not22.i = icmp eq i32 %44, 0
  br i1 %.not22.i, label %50, label %45

45:                                               ; preds = %43
  %46 = call i32 @repo_read_loose_object_map(ptr noundef %29) #10
  %47 = call i32 @repo_loose_object_map_oid(ptr noundef %29, ptr noundef nonnull %9, ptr noundef %2, ptr noundef nonnull %10) #10
  %.not23.i = icmp eq i32 %47, 0
  br i1 %.not23.i, label %50, label %repo_oid_to_algop.exit

repo_oid_to_algop.exit:                           ; preds = %45
  %48 = call ptr @oid_to_hex(ptr noundef nonnull %9) #10
  %49 = call i32 (ptr, ...) @error(ptr noundef nonnull @.str.26, ptr noundef %48) #10
  br label %72

50:                                               ; preds = %43, %45, %41
  %51 = load ptr, ptr %11, align 8, !tbaa !49
  %52 = getelementptr inbounds nuw i8, ptr %51, i64 1
  %53 = ptrtoint ptr %52 to i64
  %54 = ptrtoint ptr %3 to i64
  %.neg = sub i64 %54, %53
  %55 = add i64 %.neg, %4
  %56 = call i64 @parse_signed_buffer(ptr noundef nonnull %52, i64 noundef %55) #10
  %.not37 = icmp eq i64 %56, %55
  br i1 %.not37, label %60, label %57

57:                                               ; preds = %50
  %58 = getelementptr inbounds nuw i8, ptr %52, i64 %56
  %59 = sub i64 %55, %56
  call void @strbuf_add(ptr noundef nonnull %7, ptr noundef nonnull %58, i64 noundef %59) #10
  br label %60

60:                                               ; preds = %57, %50
  %61 = call i32 @parse_buffer_signed_by_header(ptr noundef nonnull %52, i64 noundef %56, ptr noundef nonnull %6, ptr noundef nonnull %8, ptr noundef %2) #10
  %62 = getelementptr inbounds nuw i8, ptr %2, i64 24
  %63 = load i64, ptr %62, align 8, !tbaa !30
  %64 = add i64 %55, 15
  %65 = add i64 %64, %63
  call void @strbuf_grow(ptr noundef %0, i64 noundef %65) #10
  %66 = call ptr @oid_to_hex(ptr noundef nonnull %10) #10
  call void (ptr, ptr, ...) @strbuf_addf(ptr noundef %0, ptr noundef nonnull @.str.27, ptr noundef %66) #10
  call void @strbuf_addbuf(ptr noundef %0, ptr noundef nonnull %6) #10
  %67 = getelementptr inbounds nuw i8, ptr %7, i64 8
  %68 = load i64, ptr %67, align 8, !tbaa !41
  %.not38 = icmp eq i64 %68, 0
  br i1 %.not38, label %71, label %69

69:                                               ; preds = %60
  %70 = call i32 @add_header_signature(ptr noundef %0, ptr noundef nonnull %7, ptr noundef nonnull %1) #10
  br label %71

71:                                               ; preds = %69, %60
  call void @strbuf_addbuf(ptr noundef %0, ptr noundef nonnull %8) #10
  call void @strbuf_release(ptr noundef nonnull %6) #10
  call void @strbuf_release(ptr noundef nonnull %8) #10
  call void @strbuf_release(ptr noundef nonnull %7) #10
  br label %72

72:                                               ; preds = %71, %repo_oid_to_algop.exit, %26, %20
  %.0 = phi i32 [ -1, %20 ], [ -1, %26 ], [ -1, %repo_oid_to_algop.exit ], [ 0, %71 ]
  call void @llvm.lifetime.end.p0(i64 8, ptr nonnull %11) #10
  call void @llvm.lifetime.end.p0(i64 36, ptr nonnull %10) #10
  call void @llvm.lifetime.end.p0(i64 36, ptr nonnull %9) #10
  call void @llvm.lifetime.end.p0(i64 24, ptr nonnull %8) #10
  call void @llvm.lifetime.end.p0(i64 24, ptr nonnull %7) #10
  call void @llvm.lifetime.end.p0(i64 24, ptr nonnull %6) #10
  ret i32 %.0
}